; Function Attrs: mustprogress nofree norecurse nosync nounwind willreturn memory(read, inaccessiblemem: none) uwtable
define noundef zeroext i1 @_ZN6casadi3allERKSt6vectorIbSaIbEE(ptr noundef nonnull readonly align 8 captures(none) dereferenceable(40) %0) local_unnamed_addr #8 personality ptr @__gxx_personality_v0 {
  %2 = load ptr, ptr %0, align 8, !tbaa !54
  %3 = getelementptr inbounds nuw i8, ptr %0, i64 16
  %4 = load ptr, ptr %3, align 8, !tbaa !54
  %5 = getelementptr inbounds nuw i8, ptr %0, i64 24
  %6 = load i32, ptr %5, align 8, !tbaa !57
  %7 = icmp eq ptr %2, %4
  %8 = icmp eq i32 %6, 0
  %.not3.i.not22 = select i1 %7, i1 %8, i1 false
  br i1 %.not3.i.not22, label %._crit_edge, label %.lr.ph

.lr.ph:                                           ; preds = %1, %_ZNSt19_Bit_const_iteratorppEv.exit
  %.sroa.7.024 = phi i32 [ %spec.select19, %_ZNSt19_Bit_const_iteratorppEv.exit ], [ 0, %1 ]
  %.sroa.014.023 = phi ptr [ %spec.select, %_ZNSt19_Bit_const_iteratorppEv.exit ], [ %2, %1 ]
  %9 = zext nneg i32 %.sroa.7.024 to i64
  %10 = shl nuw i64 1, %9
  %11 = load i64, ptr %.sroa.014.023, align 8, !tbaa !20
  %12 = and i64 %11, %10
  %.not.not.not = icmp ne i64 %12, 0
  br i1 %.not.not.not, label %_ZNSt19_Bit_const_iteratorppEv.exit, label %._crit_edge

_ZNSt19_Bit_const_iteratorppEv.exit:              ; preds = %.lr.ph
  %13 = add i32 %.sroa.7.024, 1
  %14 = icmp eq i32 %.sroa.7.024, 63
  %spec.select.idx = select i1 %14, i64 8, i64 0
  %spec.select = getelementptr inbounds nuw i8, ptr %.sroa.014.023, i64 %spec.select.idx
  %spec.select19 = select i1 %14, i32 0, i32 %13
  %15 = icmp eq ptr %spec.select, %4
  %16 = icmp eq i32 %spec.select19, %6
  %.not3.i.not = select i1 %15, i1 %16, i1 false
  br i1 %.not3.i.not, label %._crit_edge, label %.lr.ph

._crit_edge:                                      ; preds = %.lr.ph, %_ZNSt19_Bit_const_iteratorppEv.exit, %1
  %.not3.i.not.lcssa = phi i1 [ true, %1 ], [ %.not.not.not, %_ZNSt19_Bit_const_iteratorppEv.exit ], [ %.not.not.not, %.lr.ph ]
  ret i1 %.not3.i.not.lcssa
}